target datalayout = "e-m:e-p270:32:32-p271:32:32-p272:64:64-i64:64-i128:128-f80:128-n8:16:32:64-S128"
target triple = "x86_64-pc-linux-gnu"

%struct._object = type { %union.anon, ptr }
%union.anon = type { i64 }
%struct.anon = type { i32, i32 }

@.str.54 = private unnamed_addr constant [12 x i8] c"length_hint\00", align 1

; Function Attrs: alwaysinline nounwind uwtable
define internal i32 @_Py_IsImmortal(ptr noundef %0) #4 {
  %2 = alloca ptr, align 8
  store ptr %0, ptr %2, align 8, !tbaa !4
  %3 = load ptr, ptr %2, align 8, !tbaa !4
  %4 = getelementptr inbounds nuw %struct._object, ptr %3, i32 0, i32 0
  %5 = getelementptr inbounds nuw %struct.anon, ptr %4, i32 0, i32 0
  %6 = load i32, ptr %5, align 8, !tbaa !20
  %7 = icmp slt i32 %6, 0
  %8 = zext i1 %7 to i32
  ret i32 %8
}

; Function Attrs: nounwind uwtable
define internal i64 @_operator_length_hint_impl(ptr noundef %0, ptr noundef %1, i64 noundef %2) #0 {
  %4 = alloca ptr, align 8
  %5 = alloca ptr, align 8
  %6 = alloca i64, align 8
  store ptr %0, ptr %4, align 8, !tbaa !4
  store ptr %1, ptr %5, align 8, !tbaa !4
  store i64 %2, ptr %6, align 8, !tbaa !18
  %7 = load ptr, ptr %5, align 8, !tbaa !4
  %8 = load i64, ptr %6, align 8, !tbaa !18
  %9 = call i64 @PyObject_LengthHint(ptr noundef %7, i64 noundef %8)
  ret i64 %9
}

; Function Attrs: alwaysinline nounwind uwtable
define internal void @Py_DECREF(ptr noundef %0) #4 {
  %2 = alloca ptr, align 8
  store ptr %0, ptr %2, align 8, !tbaa !4
  %3 = load ptr, ptr %2, align 8, !tbaa !4
  %4 = call i32 @_Py_IsImmortal(ptr noundef %3)
  %5 = icmp ne i32 %4, 0
  br i1 %5, label %6, label %7

6:                                                ; preds = %1
  br label %16

7:                                                ; preds = %1
  %8 = load ptr, ptr %2, align 8, !tbaa !4
  %9 = getelementptr inbounds nuw %struct._object, ptr %8, i32 0, i32 0
  %10 = getelementptr inbounds nuw %struct.anon, ptr %9, i32 0, i32 0
  %11 = load i32, ptr %10, align 8, !tbaa !20
  %12 = add i32 %11, -1
  store i32 %12, ptr %10, align 8, !tbaa !20
  %13 = icmp eq i32 %12, 0
  br i1 %13, label %14, label %16

14:                                               ; preds = %7
  %15 = load ptr, ptr %2, align 8, !tbaa !4
  call void @_Py_Dealloc(ptr noundef %15)
  br label %16

16:                                               ; preds = %6, %14, %7
  ret void
}

; Function Attrs: nounwind uwtable
define internal ptr @_operator_length_hint(ptr noundef %0, ptr noundef %1, i64 noundef %2) #0 {
  %4 = alloca ptr, align 8
  %5 = alloca ptr, align 8
  %6 = alloca ptr, align 8
  %7 = alloca i64, align 8
  %8 = alloca ptr, align 8
  %9 = alloca ptr, align 8
  %10 = alloca i64, align 8
  %11 = alloca i64, align 8
  %12 = alloca i64, align 8
  %13 = alloca ptr, align 8
  %14 = alloca i32, align 4
  store ptr %0, ptr %5, align 8, !tbaa !4
  store ptr %1, ptr %6, align 8, !tbaa !16
  store i64 %2, ptr %7, align 8, !tbaa !18
  call void @llvm.lifetime.start.p0(i64 8, ptr %8) #7
  store ptr null, ptr %8, align 8, !tbaa !4
  call void @llvm.lifetime.start.p0(i64 8, ptr %9) #7
  call void @llvm.lifetime.start.p0(i64 8, ptr %10) #7
  store i64 0, ptr %10, align 8, !tbaa !18
  call void @llvm.lifetime.start.p0(i64 8, ptr %11) #7
  %15 = load i64, ptr %7, align 8, !tbaa !18
  %16 = icmp sle i64 1, %15
  br i1 %16, label %17, label %20

17:                                               ; preds = %3
  %18 = load i64, ptr %7, align 8, !tbaa !18
  %19 = icmp sle i64 %18, 2
  br i1 %19, label %25, label %20

20:                                               ; preds = %17, %3
  %21 = load i64, ptr %7, align 8, !tbaa !18
  %22 = call i32 @_PyArg_CheckPositional(ptr noundef @.str.54, i64 noundef %21, i64 noundef 1, i64 noundef 2)
  %23 = icmp ne i32 %22, 0
  br i1 %23, label %25, label %24

24:                                               ; preds = %20
  br label %69

25:                                               ; preds = %20, %17
  %26 = load ptr, ptr %6, align 8, !tbaa !16
  %27 = getelementptr ptr, ptr %26, i64 0
  %28 = load ptr, ptr %27, align 8, !tbaa !4
  store ptr %28, ptr %9, align 8, !tbaa !4
  %29 = load i64, ptr %7, align 8, !tbaa !18
  %30 = icmp slt i64 %29, 2
  br i1 %30, label %31, label %32

31:                                               ; preds = %25
  br label %55

32:                                               ; preds = %25
  call void @llvm.lifetime.start.p0(i64 8, ptr %12) #7
  store i64 -1, ptr %12, align 8, !tbaa !18
  call void @llvm.lifetime.start.p0(i64 8, ptr %13) #7
  %33 = load ptr, ptr %6, align 8, !tbaa !16
  %34 = getelementptr ptr, ptr %33, i64 1
  %35 = load ptr, ptr %34, align 8, !tbaa !4
  %36 = call ptr @_PyNumber_Index(ptr noundef %35)
  store ptr %36, ptr %13, align 8, !tbaa !4
  %37 = load ptr, ptr %13, align 8, !tbaa !4
  %38 = icmp ne ptr %37, null
  br i1 %38, label %39, label %43

39:                                               ; preds = %32
  %40 = load ptr, ptr %13, align 8, !tbaa !4
  %41 = call i64 @PyLong_AsSsize_t(ptr noundef %40)
  store i64 %41, ptr %12, align 8, !tbaa !18
  %42 = load ptr, ptr %13, align 8, !tbaa !4
  call void @Py_DECREF(ptr noundef %42)
  br label %43

43:                                               ; preds = %39, %32
  %44 = load i64, ptr %12, align 8, !tbaa !18
  %45 = icmp eq i64 %44, -1
  br i1 %45, label %46, label %50

46:                                               ; preds = %43
  %47 = call ptr @PyErr_Occurred()
  %48 = icmp ne ptr %47, null
  br i1 %48, label %49, label %50

49:                                               ; preds = %46
  store i32 2, ptr %14, align 4
  br label %52

50:                                               ; preds = %46, %43
  %51 = load i64, ptr %12, align 8, !tbaa !18
  store i64 %51, ptr %10, align 8, !tbaa !18
  store i32 0, ptr %14, align 4
  br label %52

52:                                               ; preds = %49, %50
  call void @llvm.lifetime.end.p0(i64 8, ptr %13) #7
  call void @llvm.lifetime.end.p0(i64 8, ptr %12) #7
  %53 = load i32, ptr %14, align 4
  switch i32 %53, label %71 [
    i32 0, label %54
    i32 2, label %69
  ]

54:                                               ; preds = %52
  br label %55

55:                                               ; preds = %54, %31
  %56 = load ptr, ptr %5, align 8, !tbaa !4
  %57 = load ptr, ptr %9, align 8, !tbaa !4
  %58 = load i64, ptr %10, align 8, !tbaa !18
  %59 = call i64 @_operator_length_hint_impl(ptr noundef %56, ptr noundef %57, i64 noundef %58)
  store i64 %59, ptr %11, align 8, !tbaa !18
  %60 = load i64, ptr %11, align 8, !tbaa !18
  %61 = icmp eq i64 %60, -1
  br i1 %61, label %62, label %66

62:                                               ; preds = %55
  %63 = call ptr @PyErr_Occurred()
  %64 = icmp ne ptr %63, null
  br i1 %64, label %65, label %66

65:                                               ; preds = %62
  br label %69

66:                                               ; preds = %62, %55
  %67 = load i64, ptr %11, align 8, !tbaa !18
  %68 = call ptr @PyLong_FromSsize_t(i64 noundef %67)
  store ptr %68, ptr %8, align 8, !tbaa !4
  br label %69

69:                                               ; preds = %66, %52, %65, %24
  %70 = load ptr, ptr %8, align 8, !tbaa !4
  store ptr %70, ptr %4, align 8
  store i32 1, ptr %14, align 4
  br label %71

71:                                               ; preds = %69, %52
  call void @llvm.lifetime.end.p0(i64 8, ptr %11) #7
  call void @llvm.lifetime.end.p0(i64 8, ptr %10) #7
  call void @llvm.lifetime.end.p0(i64 8, ptr %9) #7
  call void @llvm.lifetime.end.p0(i64 8, ptr %8) #7
  %72 = load ptr, ptr %4, align 8
  ret ptr %72
}