; Function Attrs: nounwind uwtable
define internal ptr @_operator_length_hint(ptr readnone captures(none) %0, ptr noundef readonly captures(none) %1, i64 noundef %2) #0 {
  %4 = add i64 %2, -1
  %or.cond = icmp ult i64 %4, 2
  br i1 %or.cond, label %7, label %5

5:                                                ; preds = %3
  %6 = tail call i32 @_PyArg_CheckPositional(ptr noundef nonnull @.str.54, i64 noundef %2, i64 noundef 1, i64 noundef 2) #7
  %.not = icmp eq i32 %6, 0
  br i1 %.not, label %29, label %7

7:                                                ; preds = %3, %5
  %8 = load ptr, ptr %1, align 8, !tbaa !17
  %9 = icmp slt i64 %2, 2
  br i1 %9, label %.thread, label %10

10:                                               ; preds = %7
  %11 = getelementptr i8, ptr %1, i64 8
  %12 = load ptr, ptr %11, align 8, !tbaa !17
  %13 = tail call ptr @_PyNumber_Index(ptr noundef %12) #7
  %.not24 = icmp eq ptr %13, null
  br i1 %.not24, label %Py_DECREF.exit.thread, label %14

14:                                               ; preds = %10
  %15 = tail call i64 @PyLong_AsSsize_t(ptr noundef nonnull %13) #7
  %16 = load i32, ptr %13, align 8, !tbaa !18
  %.not.i = icmp sgt i32 %16, -1
  br i1 %.not.i, label %17, label %Py_DECREF.exit

17:                                               ; preds = %14
  %18 = add nsw i32 %16, -1
  store i32 %18, ptr %13, align 8, !tbaa !18
  %19 = icmp eq i32 %18, 0
  br i1 %19, label %20, label %Py_DECREF.exit

20:                                               ; preds = %17
  tail call void @_Py_Dealloc(ptr noundef nonnull %13) #7
  br label %Py_DECREF.exit

Py_DECREF.exit:                                   ; preds = %20, %17, %14
  %21 = icmp eq i64 %15, -1
  br i1 %21, label %Py_DECREF.exit.thread, label %.thread

Py_DECREF.exit.thread:                            ; preds = %10, %Py_DECREF.exit
  %22 = tail call ptr @PyErr_Occurred() #7
  %.not25 = icmp eq ptr %22, null
  br i1 %.not25, label %.thread, label %29

.thread:                                          ; preds = %Py_DECREF.exit.thread, %Py_DECREF.exit, %7
  %.022 = phi i64 [ 0, %7 ], [ %15, %Py_DECREF.exit ], [ -1, %Py_DECREF.exit.thread ]
  %23 = tail call i64 @PyObject_LengthHint(ptr noundef %8, i64 noundef %.022) #7
  %24 = icmp eq i64 %23, -1
  br i1 %24, label %25, label %27

25:                                               ; preds = %.thread
  %26 = tail call ptr @PyErr_Occurred() #7
  %.not26 = icmp eq ptr %26, null
  br i1 %.not26, label %27, label %29

27:                                               ; preds = %25, %.thread
  %28 = tail call ptr @PyLong_FromSsize_t(i64 noundef %23) #7
  br label %29

29:                                               ; preds = %Py_DECREF.exit.thread, %27, %5, %25
  %.021 = phi ptr [ null, %25 ], [ %28, %27 ], [ null, %5 ], [ null, %Py_DECREF.exit.thread ]
  ret ptr %.021
}